target datalayout = "e-m:e-p270:32:32-p271:32:32-p272:64:64-i64:64-i128:128-f80:128-n8:16:32:64-S128"
target triple = "x86_64-pc-linux-gnu"

%struct.prte_process_info_t = type { %struct.pmix_proc, %struct.pmix_proc, ptr, %struct.pmix_proc, i32, i32, i32, ptr, ptr, i32, i8, ptr, i16, ptr, ptr, i8, ptr, i8 }
%struct.pmix_proc = type { [256 x i8], i32 }
%struct.timeval = type { i64, i64 }
%struct.pmix_data_buffer = type { ptr, ptr, ptr, i64, i64 }
%struct.pmix_list_t = type { %struct.pmix_object_t, %struct.pmix_list_item_t, i64 }
%struct.pmix_object_t = type { %union.pthread_mutex_t, ptr, i32, %struct.pmix_tma }
%union.pthread_mutex_t = type { %struct.__pthread_mutex_s }
%struct.__pthread_mutex_s = type { i32, i32, i32, i32, i32, i16, i16, %struct.__pthread_internal_list }
%struct.__pthread_internal_list = type { ptr, ptr }
%struct.pmix_tma = type { ptr, ptr, ptr, ptr, ptr, ptr, ptr, ptr }
%struct.pmix_list_item_t = type { %struct.pmix_object_t, ptr, ptr, i32 }
%struct.prte_state_base_module_1_0_0_t = type { ptr, ptr, ptr, ptr, ptr, ptr, ptr, ptr, ptr, ptr }
%struct.pmix_mca_base_framework_t = type { ptr, ptr, ptr, ptr, ptr, ptr, i32, i32, ptr, ptr, i32, i32, %struct.pmix_list_t, %struct.pmix_list_t }
%struct.pmix_output_desc_t = type { i8, i8, i32, i8, i32, ptr, ptr, i32, ptr, i32, i8, i8, i8, i8, ptr, i32, i32 }
%struct.prte_job_t = type { %struct.pmix_list_item_t, i32, ptr, ptr, [256 x i8], ptr, i32, i32, ptr, ptr, i32, i32, i32, i32, ptr, ptr, ptr, i32, i32, i32, i32, i32, i32, i32, %struct.pmix_proc, i32, i16, %struct.pmix_list_t, %struct.pmix_data_buffer, %struct.pmix_list_t, [256 x i8], i32, ptr, %struct.pmix_cli_result_t }
%struct.pmix_cli_result_t = type { %struct.pmix_object_t, %struct.pmix_list_t, ptr }

@.str = private unnamed_addr constant [37 x i8] c"PRTE ERROR: %s in file %s at line %d\00", align 1
@.str.1 = private unnamed_addr constant [19 x i8] c"plm_slurm_module.c\00", align 1
@prte_process_info = external global %struct.prte_process_info_t, align 8
@prte_state = external global %struct.prte_state_base_module_1_0_0_t, align 8
@prte_plm_base_framework = external global %struct.pmix_mca_base_framework_t, align 8
@pmix_output_info = external global [0 x %struct.pmix_output_desc_t], align 8
@prte_state_base_framework = external global %struct.pmix_mca_base_framework_t, align 8
@.str.3 = private unnamed_addr constant [42 x i8] c"%s [%f] ACTIVATE JOB %s STATE %s AT %s:%d\00", align 1
@.str.4 = private unnamed_addr constant [5 x i8] c"NULL\00", align 1
@primary_pid_set = internal global i8 0, align 1
@.str.42 = private unnamed_addr constant [40 x i8] c"%s plm:slurm: primary daemons complete!\00", align 1

; Function Attrs: nounwind uwtable
define internal i32 @plm_slurm_terminate_prteds() #0 {
  %1 = alloca i32, align 4
  %2 = alloca ptr, align 8
  %3 = alloca ptr, align 8
  %4 = alloca double, align 8
  %5 = alloca %struct.timeval, align 8
  call void @llvm.lifetime.start.p0(i64 4, ptr %1) #13
  store i32 0, ptr %1, align 4, !tbaa !3
  call void @llvm.lifetime.start.p0(i64 8, ptr %2) #13
  %6 = load i8, ptr @primary_pid_set, align 1, !tbaa !44, !range !45, !noundef !46
  %7 = trunc i8 %6 to i1
  br i1 %7, label %8, label %22

8:                                                ; preds = %0
  %9 = call i32 @prte_plm_base_prted_exit(i8 noundef zeroext 7)
  store i32 %9, ptr %1, align 4, !tbaa !3
  %10 = icmp ne i32 0, %9
  br i1 %10, label %11, label %21

11:                                               ; preds = %8
  br label %12

12:                                               ; preds = %11
  %13 = load i32, ptr %1, align 4, !tbaa !3
  %14 = icmp ne i32 -43, %13
  br i1 %14, label %15, label %18

15:                                               ; preds = %12
  %16 = load i32, ptr %1, align 4, !tbaa !3
  %17 = call ptr @prte_strerror(i32 noundef %16)
  call void (i32, ptr, ...) @pmix_output(i32 noundef 0, ptr noundef @.str, ptr noundef %17, ptr noundef @.str.1, i32 noundef 483)
  br label %18

18:                                               ; preds = %15, %12
  br label %19

19:                                               ; preds = %18
  br label %20

20:                                               ; preds = %19
  br label %21

21:                                               ; preds = %20, %8
  br label %96

22:                                               ; preds = %0
  %23 = load i32, ptr getelementptr inbounds nuw (%struct.pmix_mca_base_framework_t, ptr @prte_plm_base_framework, i32 0, i32 11), align 4, !tbaa !40
  %24 = icmp sge i32 %23, 0
  br i1 %24, label %25, label %38

25:                                               ; preds = %22
  %26 = load i32, ptr getelementptr inbounds nuw (%struct.pmix_mca_base_framework_t, ptr @prte_plm_base_framework, i32 0, i32 11), align 4, !tbaa !40
  %27 = icmp slt i32 %26, 64
  br i1 %27, label %28, label %38

28:                                               ; preds = %25
  %29 = load i32, ptr getelementptr inbounds nuw (%struct.pmix_mca_base_framework_t, ptr @prte_plm_base_framework, i32 0, i32 11), align 4, !tbaa !40
  %30 = sext i32 %29 to i64
  %31 = getelementptr inbounds [0 x %struct.pmix_output_desc_t], ptr @pmix_output_info, i64 0, i64 %30
  %32 = getelementptr inbounds nuw %struct.pmix_output_desc_t, ptr %31, i32 0, i32 2
  %33 = load i32, ptr %32, align 4, !tbaa !41
  %34 = icmp sge i32 %33, 1
  br i1 %34, label %35, label %38

35:                                               ; preds = %28
  %36 = load i32, ptr getelementptr inbounds nuw (%struct.pmix_mca_base_framework_t, ptr @prte_plm_base_framework, i32 0, i32 11), align 4, !tbaa !40
  %37 = call ptr @prte_util_print_name_args(ptr noundef @prte_process_info)
  call void (i32, ptr, ...) @pmix_output(i32 noundef %36, ptr noundef @.str.42, ptr noundef %37)
  br label %38

38:                                               ; preds = %35, %28, %25, %22
  %39 = call ptr @prte_get_job_data_object(ptr noundef @prte_process_info)
  store ptr %39, ptr %2, align 8, !tbaa !7
  %40 = load ptr, ptr %2, align 8, !tbaa !7
  %41 = getelementptr inbounds nuw %struct.prte_job_t, ptr %40, i32 0, i32 13
  %42 = load i32, ptr %41, align 4, !tbaa !47
  %43 = load ptr, ptr %2, align 8, !tbaa !7
  %44 = getelementptr inbounds nuw %struct.prte_job_t, ptr %43, i32 0, i32 21
  store i32 %42, ptr %44, align 8, !tbaa !48
  br label %45

45:                                               ; preds = %38
  call void @llvm.lifetime.start.p0(i64 8, ptr %3) #13
  %46 = load ptr, ptr %2, align 8, !tbaa !7
  store ptr %46, ptr %3, align 8, !tbaa !7
  %47 = load i32, ptr getelementptr inbounds nuw (%struct.pmix_mca_base_framework_t, ptr @prte_state_base_framework, i32 0, i32 10), align 8, !tbaa !33
  %48 = icmp sgt i32 %47, 0
  br i1 %48, label %49, label %91

49:                                               ; preds = %45
  call void @llvm.lifetime.start.p0(i64 8, ptr %4) #13
  store double 0.000000e+00, ptr %4, align 8, !tbaa !36
  br label %50

50:                                               ; preds = %49
  call void @llvm.lifetime.start.p0(i64 16, ptr %5) #13
  %51 = call i32 @gettimeofday(ptr noundef %5, ptr noundef null) #13
  %52 = getelementptr inbounds nuw %struct.timeval, ptr %5, i32 0, i32 0
  %53 = load i64, ptr %52, align 8, !tbaa !38
  %54 = sitofp i64 %53 to double
  store double %54, ptr %4, align 8, !tbaa !36
  %55 = getelementptr inbounds nuw %struct.timeval, ptr %5, i32 0, i32 1
  %56 = load i64, ptr %55, align 8, !tbaa !39
  %57 = sitofp i64 %56 to double
  %58 = fdiv double %57, 1.000000e+06
  %59 = load double, ptr %4, align 8, !tbaa !36
  %60 = fadd double %59, %58
  store double %60, ptr %4, align 8, !tbaa !36
  call void @llvm.lifetime.end.p0(i64 16, ptr %5) #13
  br label %61

61:                                               ; preds = %50
  br label %62

62:                                               ; preds = %61
  %63 = load i32, ptr getelementptr inbounds nuw (%struct.pmix_mca_base_framework_t, ptr @prte_state_base_framework, i32 0, i32 11), align 4, !tbaa !40
  %64 = icmp sge i32 %63, 0
  br i1 %64, label %65, label %90

65:                                               ; preds = %62
  %66 = load i32, ptr getelementptr inbounds nuw (%struct.pmix_mca_base_framework_t, ptr @prte_state_base_framework, i32 0, i32 11), align 4, !tbaa !40
  %67 = icmp slt i32 %66, 64
  br i1 %67, label %68, label %90

68:                                               ; preds = %65
  %69 = load i32, ptr getelementptr inbounds nuw (%struct.pmix_mca_base_framework_t, ptr @prte_state_base_framework, i32 0, i32 11), align 4, !tbaa !40
  %70 = sext i32 %69 to i64
  %71 = getelementptr inbounds [0 x %struct.pmix_output_desc_t], ptr @pmix_output_info, i64 0, i64 %70
  %72 = getelementptr inbounds nuw %struct.pmix_output_desc_t, ptr %71, i32 0, i32 2
  %73 = load i32, ptr %72, align 4, !tbaa !41
  %74 = icmp sge i32 %73, 1
  br i1 %74, label %75, label %90

75:                                               ; preds = %68
  %76 = load i32, ptr getelementptr inbounds nuw (%struct.pmix_mca_base_framework_t, ptr @prte_state_base_framework, i32 0, i32 11), align 4, !tbaa !40
  %77 = call ptr @prte_util_print_name_args(ptr noundef @prte_process_info)
  %78 = load double, ptr %4, align 8, !tbaa !36
  %79 = load ptr, ptr %3, align 8, !tbaa !7
  %80 = icmp eq ptr null, %79
  br i1 %80, label %81, label %82

81:                                               ; preds = %75
  br label %87

82:                                               ; preds = %75
  %83 = load ptr, ptr %3, align 8, !tbaa !7
  %84 = getelementptr inbounds nuw %struct.prte_job_t, ptr %83, i32 0, i32 4
  %85 = getelementptr inbounds [256 x i8], ptr %84, i64 0, i64 0
  %86 = call ptr @prte_util_print_jobids(ptr noundef %85)
  br label %87

87:                                               ; preds = %82, %81
  %88 = phi ptr [ @.str.4, %81 ], [ %86, %82 ]
  %89 = call ptr @prte_job_state_to_str(i32 noundef 33)
  call void (i32, ptr, ...) @pmix_output(i32 noundef %76, ptr noundef @.str.3, ptr noundef %77, double noundef %78, ptr noundef %88, ptr noundef %89, ptr noundef @.str.1, i32 noundef 492)
  br label %90

90:                                               ; preds = %87, %68, %65, %62
  call void @llvm.lifetime.end.p0(i64 8, ptr %4) #13
  br label %91

91:                                               ; preds = %90, %45
  %92 = load ptr, ptr getelementptr inbounds nuw (%struct.prte_state_base_module_1_0_0_t, ptr @prte_state, i32 0, i32 2), align 8, !tbaa !43
  %93 = load ptr, ptr %3, align 8, !tbaa !7
  call void %92(ptr noundef %93, i32 noundef 33)
  call void @llvm.lifetime.end.p0(i64 8, ptr %3) #13
  br label %94

94:                                               ; preds = %91
  br label %95

95:                                               ; preds = %94
  br label %96

96:                                               ; preds = %95, %21
  %97 = load i32, ptr %1, align 4, !tbaa !3
  call void @llvm.lifetime.end.p0(i64 8, ptr %2) #13
  call void @llvm.lifetime.end.p0(i64 4, ptr %1) #13
  ret i32 %97
}