; Function Attrs: nounwind uwtable
define internal noundef i32 @plm_slurm_terminate_prteds() #0 {
  %1 = alloca %struct.timeval, align 8
  %.b19 = load i1, ptr @primary_pid_set, align 1
  br i1 %.b19, label %2, label %6

2:                                                ; preds = %0
  %3 = tail call i32 @prte_plm_base_prted_exit(i8 noundef zeroext 7) #17
  switch i32 %3, label %4 [
    i32 -43, label %44
    i32 0, label %44
  ]

4:                                                ; preds = %2
  %5 = tail call ptr @prte_strerror(i32 noundef %3) #17
  tail call void (i32, ptr, ...) @pmix_output(i32 noundef 0, ptr noundef nonnull @.str, ptr noundef %5, ptr noundef nonnull @.str.1, i32 noundef 483) #17
  br label %44

6:                                                ; preds = %0
  %7 = load i32, ptr getelementptr inbounds nuw (i8, ptr @prte_plm_base_framework, i64 76), align 4, !tbaa !36
  %or.cond = icmp ult i32 %7, 64
  br i1 %or.cond, label %8, label %15

8:                                                ; preds = %6
  %9 = zext nneg i32 %7 to i64
  %10 = getelementptr inbounds nuw [0 x %struct.pmix_output_desc_t], ptr @pmix_output_info, i64 0, i64 %9, i32 2
  %11 = load i32, ptr %10, align 4, !tbaa !37
  %12 = icmp sgt i32 %11, 0
  br i1 %12, label %13, label %15

13:                                               ; preds = %8
  %14 = tail call ptr @prte_util_print_name_args(ptr noundef nonnull @prte_process_info) #17
  tail call void (i32, ptr, ...) @pmix_output(i32 noundef %7, ptr noundef nonnull @.str.42, ptr noundef %14) #17
  br label %15

15:                                               ; preds = %13, %8, %6
  %16 = tail call ptr @prte_get_job_data_object(ptr noundef nonnull @prte_process_info) #17
  %17 = getelementptr inbounds nuw i8, ptr %16, i64 468
  %18 = load i32, ptr %17, align 4, !tbaa !40
  %19 = getelementptr inbounds nuw i8, ptr %16, i64 512
  store i32 %18, ptr %19, align 8, !tbaa !41
  %20 = load i32, ptr getelementptr inbounds nuw (i8, ptr @prte_state_base_framework, i64 72), align 8, !tbaa !31
  %21 = icmp sgt i32 %20, 0
  br i1 %21, label %22, label %42

22:                                               ; preds = %15
  call void @llvm.lifetime.start.p0(i64 16, ptr nonnull %1) #17
  %23 = call i32 @gettimeofday(ptr noundef nonnull %1, ptr noundef null) #17
  %24 = load i64, ptr %1, align 8, !tbaa !34
  %25 = sitofp i64 %24 to double
  %26 = getelementptr inbounds nuw i8, ptr %1, i64 8
  %27 = load i64, ptr %26, align 8, !tbaa !35
  %28 = sitofp i64 %27 to double
  %29 = fdiv double %28, 1.000000e+06
  %30 = fadd double %29, %25
  call void @llvm.lifetime.end.p0(i64 16, ptr nonnull %1) #17
  %31 = load i32, ptr getelementptr inbounds nuw (i8, ptr @prte_state_base_framework, i64 76), align 4, !tbaa !36
  %or.cond3 = icmp ult i32 %31, 64
  br i1 %or.cond3, label %32, label %42

32:                                               ; preds = %22
  %33 = zext nneg i32 %31 to i64
  %34 = getelementptr inbounds nuw [0 x %struct.pmix_output_desc_t], ptr @pmix_output_info, i64 0, i64 %33, i32 2
  %35 = load i32, ptr %34, align 4, !tbaa !37
  %36 = icmp sgt i32 %35, 0
  br i1 %36, label %37, label %42

37:                                               ; preds = %32
  %38 = tail call ptr @prte_util_print_name_args(ptr noundef nonnull @prte_process_info) #17
  %39 = getelementptr inbounds nuw i8, ptr %16, i64 168
  %40 = tail call ptr @prte_util_print_jobids(ptr noundef nonnull %39) #17
  %41 = tail call ptr @prte_job_state_to_str(i32 noundef 33) #17
  tail call void (i32, ptr, ...) @pmix_output(i32 noundef %31, ptr noundef nonnull @.str.3, ptr noundef %38, double noundef %30, ptr noundef %40, ptr noundef %41, ptr noundef nonnull @.str.1, i32 noundef 492) #17
  br label %42

42:                                               ; preds = %22, %32, %37, %15
  %43 = load ptr, ptr getelementptr inbounds nuw (i8, ptr @prte_state, i64 16), align 8, !tbaa !39
  tail call void %43(ptr noundef nonnull %16, i32 noundef 33) #17
  br label %44

44:                                               ; preds = %2, %2, %4, %42
  %.0 = phi i32 [ %3, %4 ], [ %3, %2 ], [ 0, %42 ], [ %3, %2 ]
  ret i32 %.0
}